; ModuleID = '43/127.c'
source_filename = "43/127.c"
target datalayout = "e-m:e-p270:32:32-p271:32:32-p272:64:64-i64:64-f80:128-n8:16:32:64-S128"
target triple = "x86_64-pc-linux-gnu"

@s = dso_local global i32 0, align 4
@i = common dso_local global i32 0, align 4
@.str = private unnamed_addr constant [3 x i8] c"%d\00", align 1
@.str.1 = private unnamed_addr constant [7 x i8] c"%d %d\0A\00", align 1
@n = common dso_local global i32 0, align 4

; Function Attrs: noinline nounwind uwtable
define dso_local i32 @zhishu(i32 %0) #0 {
  %2 = alloca i32, align 4
  %3 = alloca i32, align 4
  store i32 %0, i32* %3, align 4
  store i32 0, i32* @s, align 4
  %4 = load i32, i32* %3, align 4
  %5 = icmp eq i32 %4, 1
  br i1 %5, label %6, label %7

6:                                                ; preds = %1
  store i32 0, i32* %2, align 4
  br label %30

7:                                                ; preds = %1
  store i32 2, i32* @i, align 4
  br label %8

8:                                                ; preds = %22, %7
  %9 = load i32, i32* @i, align 4
  %10 = load i32, i32* %3, align 4
  %11 = sdiv i32 %10, 2
  %12 = icmp sle i32 %9, %11
  br i1 %12, label %13, label %25

13:                                               ; preds = %8
  %14 = load i32, i32* %3, align 4
  %15 = load i32, i32* @i, align 4
  %16 = srem i32 %14, %15
  %17 = icmp eq i32 %16, 0
  br i1 %17, label %18, label %21

18:                                               ; preds = %13
  %19 = load i32, i32* @s, align 4
  %20 = add nsw i32 %19, 1
  store i32 %20, i32* @s, align 4
  br label %21

21:                                               ; preds = %18, %13
  br label %22

22:                                               ; preds = %21
  %23 = load i32, i32* @i, align 4
  %24 = add nsw i32 %23, 1
  store i32 %24, i32* @i, align 4
  br label %8

25:                                               ; preds = %8
  %26 = load i32, i32* @s, align 4
  %27 = icmp eq i32 %26, 0
  br i1 %27, label %28, label %29

28:                                               ; preds = %25
  store i32 1, i32* %2, align 4
  br label %30

29:                                               ; preds = %25
  store i32 0, i32* %2, align 4
  br label %30

30:                                               ; preds = %29, %28, %6
  %31 = load i32, i32* %2, align 4
  ret i32 %31
}

; Function Attrs: noinline nounwind uwtable
define dso_local i32 @main() #0 {
  %1 = alloca i32, align 4
  %2 = alloca i32, align 4
  %3 = alloca i32, align 4
  store i32 0, i32* %1, align 4
  %4 = call i32 (i8*, ...) @__isoc99_scanf(i8* getelementptr inbounds ([3 x i8], [3 x i8]* @.str, i64 0, i64 0), i32* %3)
  store i32 1, i32* %2, align 4
  br label %5

5:                                                ; preds = %27, %0
  %6 = load i32, i32* %2, align 4
  %7 = load i32, i32* %3, align 4
  %8 = sdiv i32 %7, 2
  %9 = icmp sle i32 %6, %8
  br i1 %9, label %10, label %30

10:                                               ; preds = %5
  %11 = load i32, i32* %2, align 4
  %12 = call i32 @zhishu(i32 %11)
  %13 = icmp eq i32 %12, 1
  br i1 %13, label %14, label %26

14:                                               ; preds = %10
  %15 = load i32, i32* %3, align 4
  %16 = load i32, i32* %2, align 4
  %17 = sub nsw i32 %15, %16
  %18 = call i32 @zhishu(i32 %17)
  %19 = icmp eq i32 %18, 1
  br i1 %19, label %20, label %26

20:                                               ; preds = %14
  %21 = load i32, i32* %2, align 4
  %22 = load i32, i32* %3, align 4
  %23 = load i32, i32* %2, align 4
  %24 = sub nsw i32 %22, %23
  %25 = call i32 (i8*, ...) @printf(i8* getelementptr inbounds ([7 x i8], [7 x i8]* @.str.1, i64 0, i64 0), i32 %21, i32 %24)
  br label %26

26:                                               ; preds = %20, %14, %10
  br label %27

27:                                               ; preds = %26
  %28 = load i32, i32* %2, align 4
  %29 = add nsw i32 %28, 1
  store i32 %29, i32* %2, align 4
  br label %5

30:                                               ; preds = %5
  %31 = call i32 @getchar()
  %32 = call i32 @getchar()
  %33 = load i32, i32* %1, align 4
  ret i32 %33
}

declare dso_local i32 @__isoc99_scanf(i8*, ...) #1

declare dso_local i32 @printf(i8*, ...) #1

declare dso_local i32 @getchar() #1


!llvm.module.flags = !{!0}
!llvm.ident = !{!1}

!0 = !{i32 1, !"wchar_size", i32 4}
!1 = !{!"clang version 10.0.0-4ubuntu1 "}
